target datalayout = "e-m:e-p270:32:32-p271:32:32-p272:64:64-i64:64-i128:128-f80:128-n8:16:32:64-S128"
target triple = "x86_64-pc-linux-gnu"

%struct.Matrix = type { float, float, float, float, float, float, float, float, float, float, float, float, float, float, float, float }
%struct.Vector2 = type { float, float }
%struct.Point = type { i32, i32 }
%struct.Size = type { i32, i32 }
%struct.anon.7 = type { ptr }
%struct.anon.8 = type { %struct.anon.9, %struct.anon.10, %struct.anon.11, %struct.anon.12 }
%struct.anon.9 = type { i32, [512 x i8], [512 x i8], [512 x i8], [16 x i32], i32, [16 x i32], i32 }
%struct.anon.10 = type { %struct.Vector2, %struct.Vector2, %struct.Vector2, %struct.Vector2, i32, i8, i8, [8 x i8], [8 x i8], %struct.Vector2, %struct.Vector2 }
%struct.anon.11 = type { i32, [8 x i32], [8 x %struct.Vector2], [8 x i8], [8 x i8] }
%struct.anon.12 = type { i32, [4 x i32], [4 x i8], [4 x [128 x i8]], [4 x [32 x i8]], [4 x [32 x i8]], [4 x [8 x float]] }
%struct.anon.13 = type { double, double, double, double, double, double, i64, i32 }
%struct.CoreData = type { %struct.anon.6, %struct.anon.7, %struct.anon.8, %struct.anon.13 }
%struct.anon.6 = type { ptr, i32, i8, i8, i8, i8, i8, i8, %struct.Point, %struct.Point, %struct.Size, %struct.Size, %struct.Size, %struct.Size, %struct.Size, %struct.Point, %struct.Size, %struct.Size, %struct.Matrix, ptr, i32 }

; Function Attrs: nounwind uwtable
define i32 @GetTouchPointId(i32 noundef %0) #0 {
  %2 = alloca i32, align 4
  %3 = alloca i32, align 4
  store i32 %0, ptr %2, align 4
  call void @llvm.lifetime.start.p0(i64 4, ptr %3) #16
  store i32 -1, ptr %3, align 4
  %4 = load i32, ptr %2, align 4
  %5 = icmp slt i32 %4, 8
  br i1 %5, label %6, label %11

6:                                                ; preds = %1
  %7 = load i32, ptr %2, align 4
  %8 = sext i32 %7 to i64
  %9 = getelementptr inbounds [8 x i32], ptr getelementptr inbounds nuw (%struct.anon.11, ptr getelementptr inbounds nuw (%struct.anon.8, ptr getelementptr inbounds nuw (%struct.CoreData, ptr @CORE, i32 0, i32 2), i32 0, i32 2), i32 0, i32 1), i64 0, i64 %8
  %10 = load i32, ptr %9, align 4
  store i32 %10, ptr %3, align 4
  br label %11

11:                                               ; preds = %6, %1
  %12 = load i32, ptr %3, align 4
  call void @llvm.lifetime.end.p0(i64 4, ptr %3) #16
  ret i32 %12
}