; Function Attrs: mustprogress nofree norecurse nosync nounwind willreturn memory(read, argmem: none, inaccessiblemem: none) uwtable
define i32 @GetTouchPointId(i32 noundef %0) local_unnamed_addr #11 {
  %2 = icmp slt i32 %0, 8
  br i1 %2, label %3, label %7

3:                                                ; preds = %1
  %4 = sext i32 %0 to i64
  %5 = getelementptr inbounds [8 x i32], ptr getelementptr inbounds nuw (i8, ptr @CORE, i64 1944), i64 0, i64 %4
  %6 = load i32, ptr %5, align 4
  br label %7

7:                                                ; preds = %3, %1
  %.0 = phi i32 [ %6, %3 ], [ -1, %1 ]
  ret i32 %.0
}